
Task_schedular.elf:     file format elf32-littlearm

Sections:
Idx Name          Size      VMA       LMA       File off  Algn
  0 .isr_vector   00000198  08000000  08000000  00001000  2**0
                  CONTENTS, ALLOC, LOAD, READONLY, DATA
  1 .text         00000644  08000198  08000198  00001198  2**2
                  CONTENTS, ALLOC, LOAD, READONLY, CODE
  2 .rodata       00000000  080007dc  080007dc  00002004  2**0
                  CONTENTS, ALLOC, LOAD, DATA
  3 .ARM.extab    00000000  080007dc  080007dc  00002004  2**0
                  CONTENTS
  4 .ARM          00000000  080007dc  080007dc  00002004  2**0
                  CONTENTS
  5 .preinit_array 00000000  080007dc  080007dc  00002004  2**0
                  CONTENTS, ALLOC, LOAD, DATA
  6 .init_array   00000004  080007dc  080007dc  000017dc  2**2
                  CONTENTS, ALLOC, LOAD, READONLY, DATA
  7 .fini_array   00000004  080007e0  080007e0  000017e0  2**2
                  CONTENTS, ALLOC, LOAD, READONLY, DATA
  8 .data         00000004  20000000  080007e4  00002000  2**0
                  CONTENTS, ALLOC, LOAD, DATA
  9 .bss          00000070  20000004  080007e8  00002004  2**2
                  ALLOC
 10 ._user_heap_stack 00000604  20000074  080007e8  00002074  2**0
                  ALLOC
 11 .ARM.attributes 0000002a  00000000  00000000  00002004  2**0
                  CONTENTS, READONLY
 12 .debug_info   000008a5  00000000  00000000  0000202e  2**0
                  CONTENTS, READONLY, DEBUGGING, OCTETS
 13 .debug_abbrev 00000499  00000000  00000000  000028d3  2**0
                  CONTENTS, READONLY, DEBUGGING, OCTETS
 14 .debug_aranges 00000170  00000000  00000000  00002d70  2**3
                  CONTENTS, READONLY, DEBUGGING, OCTETS
 15 .debug_rnglists 000000f8  00000000  00000000  00002ee0  2**0
                  CONTENTS, READONLY, DEBUGGING, OCTETS
 16 .debug_macro  00001264  00000000  00000000  00002fd8  2**0
                  CONTENTS, READONLY, DEBUGGING, OCTETS
 17 .debug_line   000015c4  00000000  00000000  0000423c  2**0
                  CONTENTS, READONLY, DEBUGGING, OCTETS
 18 .debug_str    0000425f  00000000  00000000  00005800  2**0
                  CONTENTS, READONLY, DEBUGGING, OCTETS
 19 .comment      00000043  00000000  00000000  00009a5f  2**0
                  CONTENTS, READONLY
 20 .debug_frame  000003b0  00000000  00000000  00009aa4  2**2
                  CONTENTS, READONLY, DEBUGGING, OCTETS
 21 .debug_line_str 00000079  00000000  00000000  00009e54  2**0
                  CONTENTS, READONLY, DEBUGGING, OCTETS

Disassembly of section .text:

08000198 <__do_global_dtors_aux>:
 8000198:	b510      	push	{r4, lr}
 800019a:	4c05      	ldr	r4, [pc, #20]	@ (80001b0 <__do_global_dtors_aux+0x18>)
 800019c:	7823      	ldrb	r3, [r4, #0]
 800019e:	b933      	cbnz	r3, 80001ae <__do_global_dtors_aux+0x16>
 80001a0:	4b04      	ldr	r3, [pc, #16]	@ (80001b4 <__do_global_dtors_aux+0x1c>)
 80001a2:	b113      	cbz	r3, 80001aa <__do_global_dtors_aux+0x12>
 80001a4:	4804      	ldr	r0, [pc, #16]	@ (80001b8 <__do_global_dtors_aux+0x20>)
 80001a6:	f3af 8000 	nop.w
 80001aa:	2301      	movs	r3, #1
 80001ac:	7023      	strb	r3, [r4, #0]
 80001ae:	bd10      	pop	{r4, pc}
 80001b0:	20000004 	.word	0x20000004
 80001b4:	00000000 	.word	0x00000000
 80001b8:	080007c4 	.word	0x080007c4

080001bc <frame_dummy>:
 80001bc:	b508      	push	{r3, lr}
 80001be:	4b03      	ldr	r3, [pc, #12]	@ (80001cc <frame_dummy+0x10>)
 80001c0:	b11b      	cbz	r3, 80001ca <frame_dummy+0xe>
 80001c2:	4903      	ldr	r1, [pc, #12]	@ (80001d0 <frame_dummy+0x14>)
 80001c4:	4803      	ldr	r0, [pc, #12]	@ (80001d4 <frame_dummy+0x18>)
 80001c6:	f3af 8000 	nop.w
 80001ca:	bd08      	pop	{r3, pc}
 80001cc:	00000000 	.word	0x00000000
 80001d0:	20000008 	.word	0x20000008
 80001d4:	080007c4 	.word	0x080007c4

080001d8 <EnableExc>:
#include"IntExc.h"
__attribute__((naked))void EnableExc(void){

    __asm volatile("MOV R1,#0x00");
 80001d8:	f04f 0100 	mov.w	r1, #0
    __asm volatile("MSR PRIMASK,R1");
 80001dc:	f381 8810 	msr	PRIMASK, r1
    __asm volatile("BX LR");
 80001e0:	4770      	bx	lr

}
 80001e2:	bf00      	nop

080001e4 <DisableExc>:
__attribute__((naked))void DisableExc(void){

    __asm volatile("MOV R1,#0x01");
 80001e4:	f04f 0101 	mov.w	r1, #1
    __asm volatile("MSR PRIMASK,R1");
 80001e8:	f381 8810 	msr	PRIMASK, r1
     __asm volatile("BX LR");
 80001ec:	4770      	bx	lr

 80001ee:	bf00      	nop

080001f0 <SetMSP>:
TCB UserTasks[MAX_TASKS];

__attribute__((naked))void SetMSP(void){
    /* __attribute__((naked)) to avoid the prolog and epilog code which modefied the MSP */
    /* to access the MSP use inline assembly */
    __asm volatile("MOV R0,%0":/*output operands*/:"r"(MSP_START):);
 80001f0:	4b02      	ldr	r3, [pc, #8]	@ (80001fc <SetMSP+0xc>)
 80001f2:	4618      	mov	r0, r3
    __asm volatile("MSR MSP,R0");
 80001f4:	f380 8808 	msr	MSP, r0
    __asm volatile("BX LR");
 80001f8:	4770      	bx	lr
    


}
 80001fa:	bf00      	nop
 80001fc:	2001ebf8 	.word	0x2001ebf8

08000200 <InitializeTasksPrivateStack>:
void InitializeTasksPrivateStack(void){
 8000200:	b580      	push	{r7, lr}
 8000202:	b084      	sub	sp, #16
 8000204:	af00      	add	r7, sp, #0
        /*Disable all exceptions*/
        DisableExc();
 8000206:	f7ff ffed 	bl	80001e4 <DisableExc>

        UserTasks[0].CurrentPSP = IDLE_STACK_START;
 800020a:	4b41      	ldr	r3, [pc, #260]	@ (8000310 <InitializeTasksPrivateStack+0x110>)
 800020c:	4a41      	ldr	r2, [pc, #260]	@ (8000314 <InitializeTasksPrivateStack+0x114>)
 800020e:	601a      	str	r2, [r3, #0]
        UserTasks[0].Task_state = TASK_READY_STATE;
 8000210:	4b3f      	ldr	r3, [pc, #252]	@ (8000310 <InitializeTasksPrivateStack+0x110>)
 8000212:	22ff      	movs	r2, #255	@ 0xff
 8000214:	721a      	strb	r2, [r3, #8]
        UserTasks[0].Task_priority = 255; /*Lowest priority*/
 8000216:	4b3e      	ldr	r3, [pc, #248]	@ (8000310 <InitializeTasksPrivateStack+0x110>)
 8000218:	22ff      	movs	r2, #255	@ 0xff
 800021a:	725a      	strb	r2, [r3, #9]
        UserTasks[0].TasksBaseAddress = IdleTask;
 800021c:	4b3c      	ldr	r3, [pc, #240]	@ (8000310 <InitializeTasksPrivateStack+0x110>)
 800021e:	4a3e      	ldr	r2, [pc, #248]	@ (8000318 <InitializeTasksPrivateStack+0x118>)
 8000220:	60da      	str	r2, [r3, #12]

        UserTasks[1].CurrentPSP = T1_STACK_START;
 8000222:	4b3b      	ldr	r3, [pc, #236]	@ (8000310 <InitializeTasksPrivateStack+0x110>)
 8000224:	4a3d      	ldr	r2, [pc, #244]	@ (800031c <InitializeTasksPrivateStack+0x11c>)
 8000226:	611a      	str	r2, [r3, #16]
        UserTasks[1].Task_state = TASK_READY_STATE;
 8000228:	4b39      	ldr	r3, [pc, #228]	@ (8000310 <InitializeTasksPrivateStack+0x110>)
 800022a:	22ff      	movs	r2, #255	@ 0xff
 800022c:	761a      	strb	r2, [r3, #24]
        UserTasks[1].Task_priority = 1; /*Static priority*/
 800022e:	4b38      	ldr	r3, [pc, #224]	@ (8000310 <InitializeTasksPrivateStack+0x110>)
 8000230:	2201      	movs	r2, #1
 8000232:	765a      	strb	r2, [r3, #25]
        UserTasks[1].TasksBaseAddress = Task1;
 8000234:	4b36      	ldr	r3, [pc, #216]	@ (8000310 <InitializeTasksPrivateStack+0x110>)
 8000236:	4a3a      	ldr	r2, [pc, #232]	@ (8000320 <InitializeTasksPrivateStack+0x120>)
 8000238:	61da      	str	r2, [r3, #28]

        UserTasks[2].CurrentPSP = T2_STACK_START;
 800023a:	4b35      	ldr	r3, [pc, #212]	@ (8000310 <InitializeTasksPrivateStack+0x110>)
 800023c:	4a39      	ldr	r2, [pc, #228]	@ (8000324 <InitializeTasksPrivateStack+0x124>)
 800023e:	621a      	str	r2, [r3, #32]
        UserTasks[2].Task_state = TASK_READY_STATE;
 8000240:	4b33      	ldr	r3, [pc, #204]	@ (8000310 <InitializeTasksPrivateStack+0x110>)
 8000242:	22ff      	movs	r2, #255	@ 0xff
 8000244:	f883 2028 	strb.w	r2, [r3, #40]	@ 0x28
        UserTasks[2].Task_priority = 2; /*Static priority*/
 8000248:	4b31      	ldr	r3, [pc, #196]	@ (8000310 <InitializeTasksPrivateStack+0x110>)
 800024a:	2202      	movs	r2, #2
 800024c:	f883 2029 	strb.w	r2, [r3, #41]	@ 0x29
        UserTasks[2].TasksBaseAddress = Task2;
 8000250:	4b2f      	ldr	r3, [pc, #188]	@ (8000310 <InitializeTasksPrivateStack+0x110>)
 8000252:	4a35      	ldr	r2, [pc, #212]	@ (8000328 <InitializeTasksPrivateStack+0x128>)
 8000254:	62da      	str	r2, [r3, #44]	@ 0x2c

        UserTasks[3].CurrentPSP = T3_STACK_START;
 8000256:	4b2e      	ldr	r3, [pc, #184]	@ (8000310 <InitializeTasksPrivateStack+0x110>)
 8000258:	4a34      	ldr	r2, [pc, #208]	@ (800032c <InitializeTasksPrivateStack+0x12c>)
 800025a:	631a      	str	r2, [r3, #48]	@ 0x30
        UserTasks[3].Task_state = TASK_READY_STATE;
 800025c:	4b2c      	ldr	r3, [pc, #176]	@ (8000310 <InitializeTasksPrivateStack+0x110>)
 800025e:	22ff      	movs	r2, #255	@ 0xff
 8000260:	f883 2038 	strb.w	r2, [r3, #56]	@ 0x38
        UserTasks[3].Task_priority = 3; /*Static priority*/
 8000264:	4b2a      	ldr	r3, [pc, #168]	@ (8000310 <InitializeTasksPrivateStack+0x110>)
 8000266:	2203      	movs	r2, #3
 8000268:	f883 2039 	strb.w	r2, [r3, #57]	@ 0x39
        UserTasks[3].TasksBaseAddress = Task3;
 800026c:	4b28      	ldr	r3, [pc, #160]	@ (8000310 <InitializeTasksPrivateStack+0x110>)
 800026e:	4a30      	ldr	r2, [pc, #192]	@ (8000330 <InitializeTasksPrivateStack+0x130>)
 8000270:	63da      	str	r2, [r3, #60]	@ 0x3c

        UserTasks[4].CurrentPSP = T4_STACK_START;
 8000272:	4b27      	ldr	r3, [pc, #156]	@ (8000310 <InitializeTasksPrivateStack+0x110>)
 8000274:	4a2f      	ldr	r2, [pc, #188]	@ (8000334 <InitializeTasksPrivateStack+0x134>)
 8000276:	641a      	str	r2, [r3, #64]	@ 0x40
        UserTasks[4].Task_state = TASK_READY_STATE;
 8000278:	4b25      	ldr	r3, [pc, #148]	@ (8000310 <InitializeTasksPrivateStack+0x110>)
 800027a:	22ff      	movs	r2, #255	@ 0xff
 800027c:	f883 2048 	strb.w	r2, [r3, #72]	@ 0x48
        UserTasks[4].Task_priority = 4; /*Static priority*/
 8000280:	4b23      	ldr	r3, [pc, #140]	@ (8000310 <InitializeTasksPrivateStack+0x110>)
 8000282:	2204      	movs	r2, #4
 8000284:	f883 2049 	strb.w	r2, [r3, #73]	@ 0x49
        UserTasks[4].TasksBaseAddress = Task4;
 8000288:	4b21      	ldr	r3, [pc, #132]	@ (8000310 <InitializeTasksPrivateStack+0x110>)
 800028a:	4a2b      	ldr	r2, [pc, #172]	@ (8000338 <InitializeTasksPrivateStack+0x138>)
 800028c:	64da      	str	r2, [r3, #76]	@ 0x4c


        for(uint8_t i = 0;i<MAX_TASKS;i++){
 800028e:	2300      	movs	r3, #0
 8000290:	73fb      	strb	r3, [r7, #15]
 8000292:	e034      	b.n	80002fe <InitializeTasksPrivateStack+0xfe>

            uint32_t * ptr = (uint32_t*)UserTasks[i].CurrentPSP;
 8000294:	7bfb      	ldrb	r3, [r7, #15]
 8000296:	4a1e      	ldr	r2, [pc, #120]	@ (8000310 <InitializeTasksPrivateStack+0x110>)
 8000298:	011b      	lsls	r3, r3, #4
 800029a:	4413      	add	r3, r2
 800029c:	681b      	ldr	r3, [r3, #0]
 800029e:	60bb      	str	r3, [r7, #8]

            /*storing xpsr with thumb bit = 1*/
            *ptr = (uint32_t)DUMMY_XPSR;
 80002a0:	68bb      	ldr	r3, [r7, #8]
 80002a2:	f04f 7280 	mov.w	r2, #16777216	@ 0x1000000
 80002a6:	601a      	str	r2, [r3, #0]
            ptr --;
 80002a8:	68bb      	ldr	r3, [r7, #8]
 80002aa:	3b04      	subs	r3, #4
 80002ac:	60bb      	str	r3, [r7, #8]
            /*storing PC but this will get updated by task schedular*/
            *ptr = (uint32_t)UserTasks[i].TasksBaseAddress;
 80002ae:	7bfb      	ldrb	r3, [r7, #15]
 80002b0:	4a17      	ldr	r2, [pc, #92]	@ (8000310 <InitializeTasksPrivateStack+0x110>)
 80002b2:	011b      	lsls	r3, r3, #4
 80002b4:	4413      	add	r3, r2
 80002b6:	330c      	adds	r3, #12
 80002b8:	681b      	ldr	r3, [r3, #0]
 80002ba:	461a      	mov	r2, r3
 80002bc:	68bb      	ldr	r3, [r7, #8]
 80002be:	601a      	str	r2, [r3, #0]
            ptr--;
 80002c0:	68bb      	ldr	r3, [r7, #8]
 80002c2:	3b04      	subs	r3, #4
 80002c4:	60bb      	str	r3, [r7, #8]
            /*storing LR with exec_return value we are storing 0xFFFFFFFD*/
            *ptr = (uint32_t)LR_VAL;
 80002c6:	68bb      	ldr	r3, [r7, #8]
 80002c8:	f06f 0202 	mvn.w	r2, #2
 80002cc:	601a      	str	r2, [r3, #0]
          
            /*storing remaining general purpose registers with zero*/
            for(uint8_t reg = 0;reg<13;reg++)
 80002ce:	2300      	movs	r3, #0
 80002d0:	71fb      	strb	r3, [r7, #7]
 80002d2:	e008      	b.n	80002e6 <InitializeTasksPrivateStack+0xe6>
                {    
                     ptr--;
 80002d4:	68bb      	ldr	r3, [r7, #8]
 80002d6:	3b04      	subs	r3, #4
 80002d8:	60bb      	str	r3, [r7, #8]
                    *ptr = 0x00;
 80002da:	68bb      	ldr	r3, [r7, #8]
 80002dc:	2200      	movs	r2, #0
 80002de:	601a      	str	r2, [r3, #0]
            for(uint8_t reg = 0;reg<13;reg++)
 80002e0:	79fb      	ldrb	r3, [r7, #7]
 80002e2:	3301      	adds	r3, #1
 80002e4:	71fb      	strb	r3, [r7, #7]
 80002e6:	79fb      	ldrb	r3, [r7, #7]
 80002e8:	2b0c      	cmp	r3, #12
 80002ea:	d9f3      	bls.n	80002d4 <InitializeTasksPrivateStack+0xd4>
                  
                }

                UserTasks[i].CurrentPSP = (uint32_t)ptr; /*storing the PSP val*/
 80002ec:	7bfb      	ldrb	r3, [r7, #15]
 80002ee:	68ba      	ldr	r2, [r7, #8]
 80002f0:	4907      	ldr	r1, [pc, #28]	@ (8000310 <InitializeTasksPrivateStack+0x110>)
 80002f2:	011b      	lsls	r3, r3, #4
 80002f4:	440b      	add	r3, r1
 80002f6:	601a      	str	r2, [r3, #0]
        for(uint8_t i = 0;i<MAX_TASKS;i++){
 80002f8:	7bfb      	ldrb	r3, [r7, #15]
 80002fa:	3301      	adds	r3, #1
 80002fc:	73fb      	strb	r3, [r7, #15]
 80002fe:	7bfb      	ldrb	r3, [r7, #15]
 8000300:	2b04      	cmp	r3, #4
 8000302:	d9c7      	bls.n	8000294 <InitializeTasksPrivateStack+0x94>


        }
        /* Enable all Exceptions */
        EnableExc();
 8000304:	f7ff ff68 	bl	80001d8 <EnableExc>


}
 8000308:	bf00      	nop
 800030a:	3710      	adds	r7, #16
 800030c:	46bd      	mov	sp, r7
 800030e:	bd80      	pop	{r7, pc}
 8000310:	20000020 	.word	0x20000020
 8000314:	2001eff8 	.word	0x2001eff8
 8000318:	08000441 	.word	0x08000441
 800031c:	2001fff8 	.word	0x2001fff8
 8000320:	080003f1 	.word	0x080003f1
 8000324:	2001fbf8 	.word	0x2001fbf8
 8000328:	08000405 	.word	0x08000405
 800032c:	2001f7f8 	.word	0x2001f7f8
 8000330:	08000419 	.word	0x08000419
 8000334:	2001f3f8 	.word	0x2001f3f8
 8000338:	0800042d 	.word	0x0800042d

0800033c <GetCurrentPSP>:

uint32_t GetCurrentPSP(void){
 800033c:	b480      	push	{r7}
 800033e:	af00      	add	r7, sp, #0

        return UserTasks[current_task].CurrentPSP;
 8000340:	4b04      	ldr	r3, [pc, #16]	@ (8000354 <GetCurrentPSP+0x18>)
 8000342:	781b      	ldrb	r3, [r3, #0]
 8000344:	4a04      	ldr	r2, [pc, #16]	@ (8000358 <GetCurrentPSP+0x1c>)
 8000346:	011b      	lsls	r3, r3, #4
 8000348:	4413      	add	r3, r2
 800034a:	681b      	ldr	r3, [r3, #0]

}
 800034c:	4618      	mov	r0, r3
 800034e:	46bd      	mov	sp, r7
 8000350:	bc80      	pop	{r7}
 8000352:	4770      	bx	lr
 8000354:	20000000 	.word	0x20000000
 8000358:	20000020 	.word	0x20000020

0800035c <ChangeSPtoPSP>:
__attribute__((naked))void ChangeSPtoPSP(void){
      
	__asm volatile("PUSH {LR}");
 800035c:	b500      	push	{lr}
        __asm volatile("BL GetCurrentPSP");
 800035e:	f7ff ffed 	bl	800033c <GetCurrentPSP>
        /*If we write __asm volatile("POP {LR}"); at bottom then cpu refer to PSP which is invalid HardFault()*/
         __asm volatile("POP {LR}");
 8000362:	f85d eb04 	ldr.w	lr, [sp], #4
        __asm volatile("MSR PSP,R0"); /* the return value of the function just called above will store in R0 as per AAPCS*/
 8000366:	f380 8809 	msr	PSP, r0
        __asm volatile("MOV R0,#0X02");
 800036a:	f04f 0002 	mov.w	r0, #2
        __asm volatile("MSR CONTROL,R0"); /* change to SP to PSP*/
 800036e:	f380 8814 	msr	CONTROL, r0
       
        __asm volatile("BX LR");
 8000372:	4770      	bx	lr




}
 8000374:	bf00      	nop
	...

08000378 <StoreCurrentPSP>:
void StoreCurrentPSP(uint32_t current_psp_val){
 8000378:	b580      	push	{r7, lr}
 800037a:	b082      	sub	sp, #8
 800037c:	af00      	add	r7, sp, #0
 800037e:	6078      	str	r0, [r7, #4]

     DisableExc();
 8000380:	f7ff ff30 	bl	80001e4 <DisableExc>
    UserTasks[current_task].CurrentPSP = current_psp_val;
 8000384:	4b06      	ldr	r3, [pc, #24]	@ (80003a0 <StoreCurrentPSP+0x28>)
 8000386:	781b      	ldrb	r3, [r3, #0]
 8000388:	4a06      	ldr	r2, [pc, #24]	@ (80003a4 <StoreCurrentPSP+0x2c>)
 800038a:	011b      	lsls	r3, r3, #4
 800038c:	4413      	add	r3, r2
 800038e:	687a      	ldr	r2, [r7, #4]
 8000390:	601a      	str	r2, [r3, #0]
     EnableExc();
 8000392:	f7ff ff21 	bl	80001d8 <EnableExc>
     
}
 8000396:	bf00      	nop
 8000398:	3708      	adds	r7, #8
 800039a:	46bd      	mov	sp, r7
 800039c:	bd80      	pop	{r7, pc}
 800039e:	bf00      	nop
 80003a0:	20000000 	.word	0x20000000
 80003a4:	20000020 	.word	0x20000020

080003a8 <ConfigureSystickInterrupt>:
    From the TRM of the microcontroller 
    By reset HSI(16MHz) will be selected as a System clock, and to Systick timer it is divided by 8 i.e (2MHz)
    refer the clock tree of the microcontroller 

*/
void ConfigureSystickInterrupt(uint16_t time_ms){
 80003a8:	b480      	push	{r7}
 80003aa:	b085      	sub	sp, #20
 80003ac:	af00      	add	r7, sp, #0
 80003ae:	4603      	mov	r3, r0
 80003b0:	80fb      	strh	r3, [r7, #6]
   By refering the TRM of microcontroller default priority is 6, but can be changed using System control reigsters in 
   processor 
    use SysTick peripheral register to configure the timer(1ms) and its interrupt

   */ 
    uint32_t no_of_ticks = (time_ms*2000);
 80003b2:	88fb      	ldrh	r3, [r7, #6]
 80003b4:	f44f 62fa 	mov.w	r2, #2000	@ 0x7d0
 80003b8:	fb02 f303 	mul.w	r3, r2, r3
 80003bc:	60fb      	str	r3, [r7, #12]
    SYST_RVR = (no_of_ticks - 1); //for 1ms
 80003be:	4a09      	ldr	r2, [pc, #36]	@ (80003e4 <ConfigureSystickInterrupt+0x3c>)
 80003c0:	68fb      	ldr	r3, [r7, #12]
 80003c2:	3b01      	subs	r3, #1
 80003c4:	6013      	str	r3, [r2, #0]
    SYST_CVR = 0X00;
 80003c6:	4b08      	ldr	r3, [pc, #32]	@ (80003e8 <ConfigureSystickInterrupt+0x40>)
 80003c8:	2200      	movs	r2, #0
 80003ca:	601a      	str	r2, [r3, #0]
    /* enable interrupt and start the timer */
    SYST_CSR |= (1U<<0)|(1U<<1)|(1U<<2); 
 80003cc:	4b07      	ldr	r3, [pc, #28]	@ (80003ec <ConfigureSystickInterrupt+0x44>)
 80003ce:	681b      	ldr	r3, [r3, #0]
 80003d0:	4a06      	ldr	r2, [pc, #24]	@ (80003ec <ConfigureSystickInterrupt+0x44>)
 80003d2:	f043 0307 	orr.w	r3, r3, #7
 80003d6:	6013      	str	r3, [r2, #0]



}
 80003d8:	bf00      	nop
 80003da:	3714      	adds	r7, #20
 80003dc:	46bd      	mov	sp, r7
 80003de:	bc80      	pop	{r7}
 80003e0:	4770      	bx	lr
 80003e2:	bf00      	nop
 80003e4:	e000e014 	.word	0xe000e014
 80003e8:	e000e018 	.word	0xe000e018
 80003ec:	e000e010 	.word	0xe000e010

080003f0 <Task1>:
extern uint8_t current_task;
extern TCB UserTasks[MAX_TASKS];
/* this value will get updated when Systick exception happens */
uint32_t global_tick = 0;
/* as of now  the tasks never terminate and never return once they called but can be changed in future */
void Task1(void){
 80003f0:	b580      	push	{r7, lr}
 80003f2:	b082      	sub	sp, #8
 80003f4:	af00      	add	r7, sp, #0
    while(1){

        /* write the application here */
        int a = 10;
 80003f6:	230a      	movs	r3, #10
 80003f8:	607b      	str	r3, [r7, #4]
        BlockTask(10);
 80003fa:	200a      	movs	r0, #10
 80003fc:	f000 f88c 	bl	8000518 <BlockTask>
    while(1){
 8000400:	bf00      	nop
 8000402:	e7f8      	b.n	80003f6 <Task1+0x6>

08000404 <Task2>:
    }
}
void Task2(void){
 8000404:	b580      	push	{r7, lr}
 8000406:	b082      	sub	sp, #8
 8000408:	af00      	add	r7, sp, #0
    while(1){

        /* write the application here */
        int a = 10;
 800040a:	230a      	movs	r3, #10
 800040c:	607b      	str	r3, [r7, #4]
        BlockTask(2);
 800040e:	2002      	movs	r0, #2
 8000410:	f000 f882 	bl	8000518 <BlockTask>
    while(1){
 8000414:	bf00      	nop
 8000416:	e7f8      	b.n	800040a <Task2+0x6>

08000418 <Task3>:
    }
}
void Task3(void){
 8000418:	b580      	push	{r7, lr}
 800041a:	b082      	sub	sp, #8
 800041c:	af00      	add	r7, sp, #0
    while(1){

        /* write the application here */
        int a = 10;
 800041e:	230a      	movs	r3, #10
 8000420:	607b      	str	r3, [r7, #4]
        BlockTask(4);
 8000422:	2004      	movs	r0, #4
 8000424:	f000 f878 	bl	8000518 <BlockTask>
    while(1){
 8000428:	bf00      	nop
 800042a:	e7f8      	b.n	800041e <Task3+0x6>

0800042c <Task4>:
    }
}
void Task4(void){
 800042c:	b580      	push	{r7, lr}
 800042e:	b082      	sub	sp, #8
 8000430:	af00      	add	r7, sp, #0
    while(1){

        /* write the application here */
       int a = 10; 
 8000432:	230a      	movs	r3, #10
 8000434:	607b      	str	r3, [r7, #4]
        BlockTask(6);
 8000436:	2006      	movs	r0, #6
 8000438:	f000 f86e 	bl	8000518 <BlockTask>
    while(1){
 800043c:	bf00      	nop
 800043e:	e7f8      	b.n	8000432 <Task4+0x6>

08000440 <IdleTask>:
    }
}
void IdleTask(void){
 8000440:	b480      	push	{r7}
 8000442:	af00      	add	r7, sp, #0

    while(1);
 8000444:	bf00      	nop
 8000446:	e7fd      	b.n	8000444 <IdleTask+0x4>

08000448 <ScheduleTask>:

}

void ScheduleTask(void){
 8000448:	b580      	push	{r7, lr}
 800044a:	b082      	sub	sp, #8
 800044c:	af00      	add	r7, sp, #0
    round robin scheduling algorithm
    checking for the ready tasks and updating the current_task var accordingly, 
    if all tasks are blocked then run idle task
    
    */
    DisableExc();
 800044e:	f7ff fec9 	bl	80001e4 <DisableExc>
 
    uint8_t state = TASK_BLOCK_STATE;
 8000452:	2300      	movs	r3, #0
 8000454:	71fb      	strb	r3, [r7, #7]
    uint8_t previous_task_priority = UserTasks[current_task].Task_priority;
 8000456:	4b2e      	ldr	r3, [pc, #184]	@ (8000510 <ScheduleTask+0xc8>)
 8000458:	781b      	ldrb	r3, [r3, #0]
 800045a:	4a2e      	ldr	r2, [pc, #184]	@ (8000514 <ScheduleTask+0xcc>)
 800045c:	011b      	lsls	r3, r3, #4
 800045e:	4413      	add	r3, r2
 8000460:	3309      	adds	r3, #9
 8000462:	781b      	ldrb	r3, [r3, #0]
 8000464:	71bb      	strb	r3, [r7, #6]
    /* Edge case when current_task is highest priority but present in TASK_BLOCK_STATE */

    if(UserTasks[current_task].Task_state == TASK_BLOCK_STATE){
 8000466:	4b2a      	ldr	r3, [pc, #168]	@ (8000510 <ScheduleTask+0xc8>)
 8000468:	781b      	ldrb	r3, [r3, #0]
 800046a:	4a2a      	ldr	r2, [pc, #168]	@ (8000514 <ScheduleTask+0xcc>)
 800046c:	011b      	lsls	r3, r3, #4
 800046e:	4413      	add	r3, r2
 8000470:	3308      	adds	r3, #8
 8000472:	781b      	ldrb	r3, [r3, #0]
 8000474:	2b00      	cmp	r3, #0
 8000476:	d118      	bne.n	80004aa <ScheduleTask+0x62>
        /* Choose one task which is in Ready state then later compare the priorites */
        for(uint8_t i=1; i<MAX_TASKS; i++){
 8000478:	2301      	movs	r3, #1
 800047a:	717b      	strb	r3, [r7, #5]
 800047c:	e012      	b.n	80004a4 <ScheduleTask+0x5c>

            if( UserTasks[i].Task_state == TASK_READY_STATE){
 800047e:	797b      	ldrb	r3, [r7, #5]
 8000480:	4a24      	ldr	r2, [pc, #144]	@ (8000514 <ScheduleTask+0xcc>)
 8000482:	011b      	lsls	r3, r3, #4
 8000484:	4413      	add	r3, r2
 8000486:	3308      	adds	r3, #8
 8000488:	781b      	ldrb	r3, [r3, #0]
 800048a:	2bff      	cmp	r3, #255	@ 0xff
 800048c:	d107      	bne.n	800049e <ScheduleTask+0x56>

                previous_task_priority = UserTasks[i].Task_priority;
 800048e:	797b      	ldrb	r3, [r7, #5]
 8000490:	4a20      	ldr	r2, [pc, #128]	@ (8000514 <ScheduleTask+0xcc>)
 8000492:	011b      	lsls	r3, r3, #4
 8000494:	4413      	add	r3, r2
 8000496:	3309      	adds	r3, #9
 8000498:	781b      	ldrb	r3, [r3, #0]
 800049a:	71bb      	strb	r3, [r7, #6]
                break;
 800049c:	e005      	b.n	80004aa <ScheduleTask+0x62>
        for(uint8_t i=1; i<MAX_TASKS; i++){
 800049e:	797b      	ldrb	r3, [r7, #5]
 80004a0:	3301      	adds	r3, #1
 80004a2:	717b      	strb	r3, [r7, #5]
 80004a4:	797b      	ldrb	r3, [r7, #5]
 80004a6:	2b04      	cmp	r3, #4
 80004a8:	d9e9      	bls.n	800047e <ScheduleTask+0x36>
            }

        }

    }
    for(uint8_t i =1;i<MAX_TASKS;i++){
 80004aa:	2301      	movs	r3, #1
 80004ac:	713b      	strb	r3, [r7, #4]
 80004ae:	e020      	b.n	80004f2 <ScheduleTask+0xaa>

    state = UserTasks[i].Task_state;
 80004b0:	793b      	ldrb	r3, [r7, #4]
 80004b2:	4a18      	ldr	r2, [pc, #96]	@ (8000514 <ScheduleTask+0xcc>)
 80004b4:	011b      	lsls	r3, r3, #4
 80004b6:	4413      	add	r3, r2
 80004b8:	3308      	adds	r3, #8
 80004ba:	781b      	ldrb	r3, [r3, #0]
 80004bc:	71fb      	strb	r3, [r7, #7]
    /*Iterating through all user Tasks and finding the Taks which is ready and low priority */
    if( state == TASK_READY_STATE && UserTasks[i].Task_priority <= previous_task_priority )
 80004be:	79fb      	ldrb	r3, [r7, #7]
 80004c0:	2bff      	cmp	r3, #255	@ 0xff
 80004c2:	d113      	bne.n	80004ec <ScheduleTask+0xa4>
 80004c4:	793b      	ldrb	r3, [r7, #4]
 80004c6:	4a13      	ldr	r2, [pc, #76]	@ (8000514 <ScheduleTask+0xcc>)
 80004c8:	011b      	lsls	r3, r3, #4
 80004ca:	4413      	add	r3, r2
 80004cc:	3309      	adds	r3, #9
 80004ce:	781b      	ldrb	r3, [r3, #0]
 80004d0:	79ba      	ldrb	r2, [r7, #6]
 80004d2:	429a      	cmp	r2, r3
 80004d4:	d30a      	bcc.n	80004ec <ScheduleTask+0xa4>
    {
        current_task = i;
 80004d6:	4a0e      	ldr	r2, [pc, #56]	@ (8000510 <ScheduleTask+0xc8>)
 80004d8:	793b      	ldrb	r3, [r7, #4]
 80004da:	7013      	strb	r3, [r2, #0]
        previous_task_priority = UserTasks[current_task].Task_priority;
 80004dc:	4b0c      	ldr	r3, [pc, #48]	@ (8000510 <ScheduleTask+0xc8>)
 80004de:	781b      	ldrb	r3, [r3, #0]
 80004e0:	4a0c      	ldr	r2, [pc, #48]	@ (8000514 <ScheduleTask+0xcc>)
 80004e2:	011b      	lsls	r3, r3, #4
 80004e4:	4413      	add	r3, r2
 80004e6:	3309      	adds	r3, #9
 80004e8:	781b      	ldrb	r3, [r3, #0]
 80004ea:	71bb      	strb	r3, [r7, #6]
    for(uint8_t i =1;i<MAX_TASKS;i++){
 80004ec:	793b      	ldrb	r3, [r7, #4]
 80004ee:	3301      	adds	r3, #1
 80004f0:	713b      	strb	r3, [r7, #4]
 80004f2:	793b      	ldrb	r3, [r7, #4]
 80004f4:	2b04      	cmp	r3, #4
 80004f6:	d9db      	bls.n	80004b0 <ScheduleTask+0x68>

    }
          
    }
    if(state == TASK_BLOCK_STATE)
 80004f8:	79fb      	ldrb	r3, [r7, #7]
 80004fa:	2b00      	cmp	r3, #0
 80004fc:	d102      	bne.n	8000504 <ScheduleTask+0xbc>
        current_task = 0;
 80004fe:	4b04      	ldr	r3, [pc, #16]	@ (8000510 <ScheduleTask+0xc8>)
 8000500:	2200      	movs	r2, #0
 8000502:	701a      	strb	r2, [r3, #0]
    
    EnableExc();
 8000504:	f7ff fe68 	bl	80001d8 <EnableExc>

}
 8000508:	bf00      	nop
 800050a:	3708      	adds	r7, #8
 800050c:	46bd      	mov	sp, r7
 800050e:	bd80      	pop	{r7, pc}
 8000510:	20000000 	.word	0x20000000
 8000514:	20000020 	.word	0x20000020

08000518 <BlockTask>:

void BlockTask(uint32_t ticks){
 8000518:	b580      	push	{r7, lr}
 800051a:	b082      	sub	sp, #8
 800051c:	af00      	add	r7, sp, #0
 800051e:	6078      	str	r0, [r7, #4]
    /*we should not block the idle task*/

      /*Disable all exceptions*/
        DisableExc();
 8000520:	f7ff fe60 	bl	80001e4 <DisableExc>

    if(current_task != 0){ /* For avoiding blocking of IDLE Task */
 8000524:	4b0e      	ldr	r3, [pc, #56]	@ (8000560 <BlockTask+0x48>)
 8000526:	781b      	ldrb	r3, [r3, #0]
 8000528:	2b00      	cmp	r3, #0
 800052a:	d013      	beq.n	8000554 <BlockTask+0x3c>

    UserTasks[current_task].block_tick = (global_tick + ticks);
 800052c:	4b0d      	ldr	r3, [pc, #52]	@ (8000564 <BlockTask+0x4c>)
 800052e:	681a      	ldr	r2, [r3, #0]
 8000530:	4b0b      	ldr	r3, [pc, #44]	@ (8000560 <BlockTask+0x48>)
 8000532:	781b      	ldrb	r3, [r3, #0]
 8000534:	4618      	mov	r0, r3
 8000536:	687b      	ldr	r3, [r7, #4]
 8000538:	441a      	add	r2, r3
 800053a:	490b      	ldr	r1, [pc, #44]	@ (8000568 <BlockTask+0x50>)
 800053c:	0103      	lsls	r3, r0, #4
 800053e:	440b      	add	r3, r1
 8000540:	3304      	adds	r3, #4
 8000542:	601a      	str	r2, [r3, #0]
    UserTasks[current_task].Task_state = TASK_BLOCK_STATE;
 8000544:	4b06      	ldr	r3, [pc, #24]	@ (8000560 <BlockTask+0x48>)
 8000546:	781b      	ldrb	r3, [r3, #0]
 8000548:	4a07      	ldr	r2, [pc, #28]	@ (8000568 <BlockTask+0x50>)
 800054a:	011b      	lsls	r3, r3, #4
 800054c:	4413      	add	r3, r2
 800054e:	3308      	adds	r3, #8
 8000550:	2200      	movs	r2, #0
 8000552:	701a      	strb	r2, [r3, #0]

    }
      /* Enable all Exceptions */
        EnableExc();
 8000554:	f7ff fe40 	bl	80001d8 <EnableExc>


}
 8000558:	bf00      	nop
 800055a:	3708      	adds	r7, #8
 800055c:	46bd      	mov	sp, r7
 800055e:	bd80      	pop	{r7, pc}
 8000560:	20000000 	.word	0x20000000
 8000564:	20000070 	.word	0x20000070
 8000568:	20000020 	.word	0x20000020

0800056c <UpdateTaskState>:

void UpdateTaskState(void){
 800056c:	b580      	push	{r7, lr}
 800056e:	b082      	sub	sp, #8
 8000570:	af00      	add	r7, sp, #0

    /*Disable all exceptions*/
        DisableExc();
 8000572:	f7ff fe37 	bl	80001e4 <DisableExc>

    /*iterating all tasks except Idle one*/
    for(int i = 1;i<MAX_TASKS;i++){
 8000576:	2301      	movs	r3, #1
 8000578:	607b      	str	r3, [r7, #4]
 800057a:	e01b      	b.n	80005b4 <UpdateTaskState+0x48>
        /*if the task in blocked state*/
        if(UserTasks[i].Task_state == TASK_BLOCK_STATE ){
 800057c:	4a12      	ldr	r2, [pc, #72]	@ (80005c8 <UpdateTaskState+0x5c>)
 800057e:	687b      	ldr	r3, [r7, #4]
 8000580:	011b      	lsls	r3, r3, #4
 8000582:	4413      	add	r3, r2
 8000584:	3308      	adds	r3, #8
 8000586:	781b      	ldrb	r3, [r3, #0]
 8000588:	2b00      	cmp	r3, #0
 800058a:	d110      	bne.n	80005ae <UpdateTaskState+0x42>

                /* if the requried block time is elapsed */
                if(UserTasks[i].block_tick == global_tick){
 800058c:	4a0e      	ldr	r2, [pc, #56]	@ (80005c8 <UpdateTaskState+0x5c>)
 800058e:	687b      	ldr	r3, [r7, #4]
 8000590:	011b      	lsls	r3, r3, #4
 8000592:	4413      	add	r3, r2
 8000594:	3304      	adds	r3, #4
 8000596:	681a      	ldr	r2, [r3, #0]
 8000598:	4b0c      	ldr	r3, [pc, #48]	@ (80005cc <UpdateTaskState+0x60>)
 800059a:	681b      	ldr	r3, [r3, #0]
 800059c:	429a      	cmp	r2, r3
 800059e:	d106      	bne.n	80005ae <UpdateTaskState+0x42>

                    UserTasks[i].Task_state  = TASK_READY_STATE;
 80005a0:	4a09      	ldr	r2, [pc, #36]	@ (80005c8 <UpdateTaskState+0x5c>)
 80005a2:	687b      	ldr	r3, [r7, #4]
 80005a4:	011b      	lsls	r3, r3, #4
 80005a6:	4413      	add	r3, r2
 80005a8:	3308      	adds	r3, #8
 80005aa:	22ff      	movs	r2, #255	@ 0xff
 80005ac:	701a      	strb	r2, [r3, #0]
    for(int i = 1;i<MAX_TASKS;i++){
 80005ae:	687b      	ldr	r3, [r7, #4]
 80005b0:	3301      	adds	r3, #1
 80005b2:	607b      	str	r3, [r7, #4]
 80005b4:	687b      	ldr	r3, [r7, #4]
 80005b6:	2b04      	cmp	r3, #4
 80005b8:	d9e0      	bls.n	800057c <UpdateTaskState+0x10>
        }

    }

     /* Enable all Exceptions */
        EnableExc();
 80005ba:	f7ff fe0d 	bl	80001d8 <EnableExc>

      
}
 80005be:	bf00      	nop
 80005c0:	3708      	adds	r7, #8
 80005c2:	46bd      	mov	sp, r7
 80005c4:	bd80      	pop	{r7, pc}
 80005c6:	bf00      	nop
 80005c8:	20000020 	.word	0x20000020
 80005cc:	20000070 	.word	0x20000070

080005d0 <main>:
void SetPendSV(void);

extern uint32_t global_tick;

int main(void)
{   
 80005d0:	b580      	push	{r7, lr}
 80005d2:	af00      	add	r7, sp, #0
    
  EnableSystemFaults();
 80005d4:	f000 f836 	bl	8000644 <EnableSystemFaults>
	SetMSP();
 80005d8:	f7ff fe0a 	bl	80001f0 <SetMSP>
  PendSVPriority(200);
 80005dc:	20c8      	movs	r0, #200	@ 0xc8
 80005de:	f000 f843 	bl	8000668 <PendSVPriority>
  InitializeTasksPrivateStack();
 80005e2:	f7ff fe0d 	bl	8000200 <InitializeTasksPrivateStack>
  ConfigureSystickInterrupt(1000U);
 80005e6:	f44f 707a 	mov.w	r0, #1000	@ 0x3e8
 80005ea:	f7ff fedd 	bl	80003a8 <ConfigureSystickInterrupt>
  ChangeSPtoPSP();
 80005ee:	f7ff feb5 	bl	800035c <ChangeSPtoPSP>
  Task1();
 80005f2:	f7ff fefd 	bl	80003f0 <Task1>

  /* Loop forever */
	for(;;);
 80005f6:	bf00      	nop
 80005f8:	e7fd      	b.n	80005f6 <main+0x26>
	...

080005fc <SysTick_Handler>:
}


void SysTick_Handler(void){
 80005fc:	b580      	push	{r7, lr}
 80005fe:	af00      	add	r7, sp, #0
   
  /*Update the global tick*/
    global_tick++;
 8000600:	4b05      	ldr	r3, [pc, #20]	@ (8000618 <SysTick_Handler+0x1c>)
 8000602:	681b      	ldr	r3, [r3, #0]
 8000604:	3301      	adds	r3, #1
 8000606:	4a04      	ldr	r2, [pc, #16]	@ (8000618 <SysTick_Handler+0x1c>)
 8000608:	6013      	str	r3, [r2, #0]
  /* Change the state of task if requried block time is elapsed */
    UpdateTaskState();
 800060a:	f7ff ffaf 	bl	800056c <UpdateTaskState>
  /* Trigger the PendSV_Handler by setting the pending bit */
    SetPendSV();
 800060e:	f000 f841 	bl	8000694 <SetPendSV>

}
 8000612:	bf00      	nop
 8000614:	bd80      	pop	{r7, pc}
 8000616:	bf00      	nop
 8000618:	20000070 	.word	0x20000070

0800061c <PendSV_Handler>:
__attribute__((naked))void PendSV_Handler(void){
  /* When interrupt occur stacking will takeplace and psp get updated */
  /* MSP is used in handler mode for storing any intermediate values */
	/* Save the remaining register using updated psp */
  /*Save the content of the current task*/
  __asm volatile("PUSH {LR}");
 800061c:	b500      	push	{lr}
  __asm volatile("MRS R0,PSP");
 800061e:	f3ef 8009 	mrs	r0, PSP
  __asm volatile("STMDB R0!,{R4-R11}"); /*storing and updating the psp*/
 8000622:	e920 0ff0 	stmdb	r0!, {r4, r5, r6, r7, r8, r9, sl, fp}
  __asm volatile("BL StoreCurrentPSP"); /* Inline because need to pass R0-Register */
 8000626:	f7ff fea7 	bl	8000378 <StoreCurrentPSP>
    ScheduleTask();
 800062a:	f7ff ff0d 	bl	8000448 <ScheduleTask>
  /*Retreving the content of the new task going to execute*/
    GetCurrentPSP();
 800062e:	f7ff fe85 	bl	800033c <GetCurrentPSP>
  /* for unstacking the R4-R11 Registers */
  __asm volatile("LDMIA R0!,{R4-R11}");
 8000632:	e8b0 0ff0 	ldmia.w	r0!, {r4, r5, r6, r7, r8, r9, sl, fp}
  /* Update the psp value to unstack the interrupt stack frame and exit from the interrupt*/
  __asm volatile("MSR PSP,R0");
 8000636:	f380 8809 	msr	PSP, r0
  __asm volatile("POP {LR}");
 800063a:	f85d eb04 	ldr.w	lr, [sp], #4
  __asm volatile("BX LR");
 800063e:	4770      	bx	lr
   

}
 8000640:	bf00      	nop
	...

08000644 <EnableSystemFaults>:


void EnableSystemFaults(void){
 8000644:	b480      	push	{r7}
 8000646:	b083      	sub	sp, #12
 8000648:	af00      	add	r7, sp, #0

uint32_t * SHCRS =  (uint32_t*)0xE000ED24;
 800064a:	4b06      	ldr	r3, [pc, #24]	@ (8000664 <EnableSystemFaults+0x20>)
 800064c:	607b      	str	r3, [r7, #4]

  *(SHCRS) |= ((1U<<18) | (1U<<17) |(1U<<16));
 800064e:	687b      	ldr	r3, [r7, #4]
 8000650:	681b      	ldr	r3, [r3, #0]
 8000652:	f443 22e0 	orr.w	r2, r3, #458752	@ 0x70000
 8000656:	687b      	ldr	r3, [r7, #4]
 8000658:	601a      	str	r2, [r3, #0]


}
 800065a:	bf00      	nop
 800065c:	370c      	adds	r7, #12
 800065e:	46bd      	mov	sp, r7
 8000660:	bc80      	pop	{r7}
 8000662:	4770      	bx	lr
 8000664:	e000ed24 	.word	0xe000ed24

08000668 <PendSVPriority>:
void PendSVPriority(uint8_t val){
 8000668:	b480      	push	{r7}
 800066a:	b085      	sub	sp, #20
 800066c:	af00      	add	r7, sp, #0
 800066e:	4603      	mov	r3, r0
 8000670:	71fb      	strb	r3, [r7, #7]

    uint32_t * SHPR3 =  (uint32_t*)0xE000ED20;
 8000672:	4b07      	ldr	r3, [pc, #28]	@ (8000690 <PendSVPriority+0x28>)
 8000674:	60fb      	str	r3, [r7, #12]
    *SHPR3 |= (val<<16U); 
 8000676:	68fb      	ldr	r3, [r7, #12]
 8000678:	681a      	ldr	r2, [r3, #0]
 800067a:	79fb      	ldrb	r3, [r7, #7]
 800067c:	041b      	lsls	r3, r3, #16
 800067e:	431a      	orrs	r2, r3
 8000680:	68fb      	ldr	r3, [r7, #12]
 8000682:	601a      	str	r2, [r3, #0]

}
 8000684:	bf00      	nop
 8000686:	3714      	adds	r7, #20
 8000688:	46bd      	mov	sp, r7
 800068a:	bc80      	pop	{r7}
 800068c:	4770      	bx	lr
 800068e:	bf00      	nop
 8000690:	e000ed20 	.word	0xe000ed20

08000694 <SetPendSV>:
void SetPendSV(void){
 8000694:	b480      	push	{r7}
 8000696:	b083      	sub	sp, #12
 8000698:	af00      	add	r7, sp, #0

     uint32_t * ICSR =  (uint32_t*)0xE000ED04;
 800069a:	4b06      	ldr	r3, [pc, #24]	@ (80006b4 <SetPendSV+0x20>)
 800069c:	607b      	str	r3, [r7, #4]
     *ICSR |=(1U<<28);
 800069e:	687b      	ldr	r3, [r7, #4]
 80006a0:	681b      	ldr	r3, [r3, #0]
 80006a2:	f043 5280 	orr.w	r2, r3, #268435456	@ 0x10000000
 80006a6:	687b      	ldr	r3, [r7, #4]
 80006a8:	601a      	str	r2, [r3, #0]
  
}
 80006aa:	bf00      	nop
 80006ac:	370c      	adds	r7, #12
 80006ae:	46bd      	mov	sp, r7
 80006b0:	bc80      	pop	{r7}
 80006b2:	4770      	bx	lr
 80006b4:	e000ed04 	.word	0xe000ed04

080006b8 <HardFault_Handler>:

void HardFault_Handler(void){
 80006b8:	b480      	push	{r7}
 80006ba:	b083      	sub	sp, #12
 80006bc:	af00      	add	r7, sp, #0

  /*Write code here*/

  uint32_t a = *((uint32_t *)0xE000ED2C);
 80006be:	4b04      	ldr	r3, [pc, #16]	@ (80006d0 <HardFault_Handler+0x18>)
 80006c0:	681b      	ldr	r3, [r3, #0]
 80006c2:	607b      	str	r3, [r7, #4]


}
 80006c4:	bf00      	nop
 80006c6:	370c      	adds	r7, #12
 80006c8:	46bd      	mov	sp, r7
 80006ca:	bc80      	pop	{r7}
 80006cc:	4770      	bx	lr
 80006ce:	bf00      	nop
 80006d0:	e000ed2c 	.word	0xe000ed2c

080006d4 <MemManage_Handler>:
void MemManage_Handler(void){
 80006d4:	b480      	push	{r7}
 80006d6:	b083      	sub	sp, #12
 80006d8:	af00      	add	r7, sp, #0
  
  /*Write code here*/

   uint32_t a = *((uint32_t *)0xE000ED28);
 80006da:	4b04      	ldr	r3, [pc, #16]	@ (80006ec <MemManage_Handler+0x18>)
 80006dc:	681b      	ldr	r3, [r3, #0]
 80006de:	607b      	str	r3, [r7, #4]


}
 80006e0:	bf00      	nop
 80006e2:	370c      	adds	r7, #12
 80006e4:	46bd      	mov	sp, r7
 80006e6:	bc80      	pop	{r7}
 80006e8:	4770      	bx	lr
 80006ea:	bf00      	nop
 80006ec:	e000ed28 	.word	0xe000ed28

080006f0 <BusFault_Handler>:
void BusFault_Handler(void){
 80006f0:	b480      	push	{r7}
 80006f2:	b083      	sub	sp, #12
 80006f4:	af00      	add	r7, sp, #0
 
  /*Write code here*/
 
   uint32_t a = *((uint32_t *)0xE000ED29);
 80006f6:	4b04      	ldr	r3, [pc, #16]	@ (8000708 <BusFault_Handler+0x18>)
 80006f8:	681b      	ldr	r3, [r3, #0]
 80006fa:	607b      	str	r3, [r7, #4]


}
 80006fc:	bf00      	nop
 80006fe:	370c      	adds	r7, #12
 8000700:	46bd      	mov	sp, r7
 8000702:	bc80      	pop	{r7}
 8000704:	4770      	bx	lr
 8000706:	bf00      	nop
 8000708:	e000ed29 	.word	0xe000ed29

0800070c <UsageFault_Handler>:

void UsageFault_Handler(void){
 800070c:	b480      	push	{r7}
 800070e:	b083      	sub	sp, #12
 8000710:	af00      	add	r7, sp, #0

   /*Write code here*/

   uint32_t a = *((uint32_t *)0xE000ED2A);
 8000712:	4b04      	ldr	r3, [pc, #16]	@ (8000724 <UsageFault_Handler+0x18>)
 8000714:	681b      	ldr	r3, [r3, #0]
 8000716:	607b      	str	r3, [r7, #4]


}
 8000718:	bf00      	nop
 800071a:	370c      	adds	r7, #12
 800071c:	46bd      	mov	sp, r7
 800071e:	bc80      	pop	{r7}
 8000720:	4770      	bx	lr
 8000722:	bf00      	nop
 8000724:	e000ed2a 	.word	0xe000ed2a

08000728 <Reset_Handler>:

  .section .text.Reset_Handler
  .weak Reset_Handler
  .type Reset_Handler, %function
Reset_Handler:
  ldr   r0, =_estack
 8000728:	480d      	ldr	r0, [pc, #52]	@ (8000760 <LoopForever+0x2>)
  mov   sp, r0          /* set stack pointer */
 800072a:	4685      	mov	sp, r0
/* Call the clock system initialization function.*/
  bl  SystemInit
 800072c:	f3af 8000 	nop.w

/* Copy the data segment initializers from flash to SRAM */
  ldr r0, =_sdata
 8000730:	480c      	ldr	r0, [pc, #48]	@ (8000764 <LoopForever+0x6>)
  ldr r1, =_edata
 8000732:	490d      	ldr	r1, [pc, #52]	@ (8000768 <LoopForever+0xa>)
  ldr r2, =_sidata
 8000734:	4a0d      	ldr	r2, [pc, #52]	@ (800076c <LoopForever+0xe>)
  movs r3, #0
 8000736:	2300      	movs	r3, #0
  b LoopCopyDataInit
 8000738:	e002      	b.n	8000740 <LoopCopyDataInit>

0800073a <CopyDataInit>:

CopyDataInit:
  ldr r4, [r2, r3]
 800073a:	58d4      	ldr	r4, [r2, r3]
  str r4, [r0, r3]
 800073c:	50c4      	str	r4, [r0, r3]
  adds r3, r3, #4
 800073e:	3304      	adds	r3, #4

08000740 <LoopCopyDataInit>:

LoopCopyDataInit:
  adds r4, r0, r3
 8000740:	18c4      	adds	r4, r0, r3
  cmp r4, r1
 8000742:	428c      	cmp	r4, r1
  bcc CopyDataInit
 8000744:	d3f9      	bcc.n	800073a <CopyDataInit>

/* Zero fill the bss segment. */
  ldr r2, =_sbss
 8000746:	4a0a      	ldr	r2, [pc, #40]	@ (8000770 <LoopForever+0x12>)
  ldr r4, =_ebss
 8000748:	4c0a      	ldr	r4, [pc, #40]	@ (8000774 <LoopForever+0x16>)
  movs r3, #0
 800074a:	2300      	movs	r3, #0
  b LoopFillZerobss
 800074c:	e001      	b.n	8000752 <LoopFillZerobss>

0800074e <FillZerobss>:

FillZerobss:
  str  r3, [r2]
 800074e:	6013      	str	r3, [r2, #0]
  adds r2, r2, #4
 8000750:	3204      	adds	r2, #4

08000752 <LoopFillZerobss>:

LoopFillZerobss:
  cmp r2, r4
 8000752:	42a2      	cmp	r2, r4
  bcc FillZerobss
 8000754:	d3fb      	bcc.n	800074e <FillZerobss>

/* Call static constructors */
  bl __libc_init_array
 8000756:	f000 f811 	bl	800077c <__libc_init_array>
/* Call the application's entry point.*/
  bl main
 800075a:	f7ff ff39 	bl	80005d0 <main>

0800075e <LoopForever>:

LoopForever:
  b LoopForever
 800075e:	e7fe      	b.n	800075e <LoopForever>
  ldr   r0, =_estack
 8000760:	20020000 	.word	0x20020000
  ldr r0, =_sdata
 8000764:	20000000 	.word	0x20000000
  ldr r1, =_edata
 8000768:	20000004 	.word	0x20000004
  ldr r2, =_sidata
 800076c:	080007e4 	.word	0x080007e4
  ldr r2, =_sbss
 8000770:	20000004 	.word	0x20000004
  ldr r4, =_ebss
 8000774:	20000074 	.word	0x20000074

08000778 <ADC_IRQHandler>:
 * @retval : None
*/
  .section .text.Default_Handler,"ax",%progbits
Default_Handler:
Infinite_Loop:
  b Infinite_Loop
 8000778:	e7fe      	b.n	8000778 <ADC_IRQHandler>
	...

0800077c <__libc_init_array>:
 800077c:	b570      	push	{r4, r5, r6, lr}
 800077e:	4d0d      	ldr	r5, [pc, #52]	@ (80007b4 <__libc_init_array+0x38>)
 8000780:	4c0d      	ldr	r4, [pc, #52]	@ (80007b8 <__libc_init_array+0x3c>)
 8000782:	1b64      	subs	r4, r4, r5
 8000784:	10a4      	asrs	r4, r4, #2
 8000786:	2600      	movs	r6, #0
 8000788:	42a6      	cmp	r6, r4
 800078a:	d109      	bne.n	80007a0 <__libc_init_array+0x24>
 800078c:	4d0b      	ldr	r5, [pc, #44]	@ (80007bc <__libc_init_array+0x40>)
 800078e:	4c0c      	ldr	r4, [pc, #48]	@ (80007c0 <__libc_init_array+0x44>)
 8000790:	f000 f818 	bl	80007c4 <_init>
 8000794:	1b64      	subs	r4, r4, r5
 8000796:	10a4      	asrs	r4, r4, #2
 8000798:	2600      	movs	r6, #0
 800079a:	42a6      	cmp	r6, r4
 800079c:	d105      	bne.n	80007aa <__libc_init_array+0x2e>
 800079e:	bd70      	pop	{r4, r5, r6, pc}
 80007a0:	f855 3b04 	ldr.w	r3, [r5], #4
 80007a4:	4798      	blx	r3
 80007a6:	3601      	adds	r6, #1
 80007a8:	e7ee      	b.n	8000788 <__libc_init_array+0xc>
 80007aa:	f855 3b04 	ldr.w	r3, [r5], #4
 80007ae:	4798      	blx	r3
 80007b0:	3601      	adds	r6, #1
 80007b2:	e7f2      	b.n	800079a <__libc_init_array+0x1e>
 80007b4:	080007dc 	.word	0x080007dc
 80007b8:	080007dc 	.word	0x080007dc
 80007bc:	080007dc 	.word	0x080007dc
 80007c0:	080007e0 	.word	0x080007e0

080007c4 <_init>:
 80007c4:	b5f8      	push	{r3, r4, r5, r6, r7, lr}
 80007c6:	bf00      	nop
 80007c8:	bcf8      	pop	{r3, r4, r5, r6, r7}
 80007ca:	bc08      	pop	{r3}
 80007cc:	469e      	mov	lr, r3
 80007ce:	4770      	bx	lr

080007d0 <_fini>:
 80007d0:	b5f8      	push	{r3, r4, r5, r6, r7, lr}
 80007d2:	bf00      	nop
 80007d4:	bcf8      	pop	{r3, r4, r5, r6, r7}
 80007d6:	bc08      	pop	{r3}
 80007d8:	469e      	mov	lr, r3
 80007da:	4770      	bx	lr
